; Function Attrs: mustprogress uwtable
define hidden void @_ZN6google8protobuf8internal25UnknownFieldSetSerializerEPKhjjjPNS0_2io17CodedOutputStreamE(ptr noundef readonly captures(none) %0, i32 noundef %1, i32 noundef %2, i32 noundef %3, ptr noundef %4) local_unnamed_addr #3 {
  %6 = zext i32 %1 to i64
  %7 = getelementptr inbounds nuw i8, ptr %0, i64 %6
  %8 = load i64, ptr %7, align 8, !tbaa !45
  %9 = and i64 %8, 1
  %.not = icmp eq i64 %9, 0
  br i1 %.not, label %16, label %_ZNK6google8protobuf8internal16InternalMetadata14unknown_fieldsINS0_15UnknownFieldSetEEERKT_PFS7_vE.exit

_ZNK6google8protobuf8internal16InternalMetadata14unknown_fieldsINS0_15UnknownFieldSetEEERKT_PFS7_vE.exit: ; preds = %5
  %10 = and i64 %8, -4
  %11 = inttoptr i64 %10 to ptr
  %12 = getelementptr inbounds nuw i8, ptr %11, i64 8
  %13 = getelementptr inbounds nuw i8, ptr %4, i64 64
  %14 = load ptr, ptr %13, align 8, !tbaa !313
  %15 = tail call noundef ptr @_ZN6google8protobuf8internal10WireFormat37InternalSerializeUnknownFieldsToArrayERKNS0_15UnknownFieldSetEPhPNS0_2io19EpsCopyOutputStreamE(ptr noundef nonnull align 8 dereferenceable(24) %12, ptr noundef %14, ptr noundef %4)
  store ptr %15, ptr %13, align 8, !tbaa !313
  br label %16

16:                                               ; preds = %_ZNK6google8protobuf8internal16InternalMetadata14unknown_fieldsINS0_15UnknownFieldSetEEERKT_PFS7_vE.exit, %5
  ret void
}